; ModuleID = 'source-C-CXX/15/578.c'
source_filename = "source-C-CXX/15/578.c"
target datalayout = "e-m:e-p270:32:32-p271:32:32-p272:64:64-i64:64-f80:128-n8:16:32:64-S128"
target triple = "x86_64-pc-linux-gnu"

@.str = private unnamed_addr constant [4 x i8] c"%ld\00", align 1
@.str.1 = private unnamed_addr constant [3 x i8] c"%d\00", align 1
@.str.2 = private unnamed_addr constant [5 x i8] c"%d%d\00", align 1
@.str.3 = private unnamed_addr constant [7 x i8] c"%d%d%d\00", align 1
@.str.4 = private unnamed_addr constant [9 x i8] c"%d%d%d%d\00", align 1
@.str.5 = private unnamed_addr constant [11 x i8] c"%d%d%d%d%d\00", align 1

; Function Attrs: nofree nounwind sspstrong uwtable
define dso_local i32 @main() local_unnamed_addr #0 {
  %1 = alloca i64, align 8
  %2 = bitcast i64* %1 to i8*
  call void @llvm.lifetime.start.p0i8(i64 8, i8* nonnull %2) #5
  %3 = call i32 (i8*, ...) @__isoc99_scanf(i8* getelementptr inbounds ([4 x i8], [4 x i8]* @.str, i64 0, i64 0), i64* nonnull %1)
  %4 = load i64, i64* %1, align 8, !tbaa !5
  %5 = sitofp i64 %4 to double
  %6 = call double @log10(double %5) #5
  %7 = fptosi double %6 to i32
  %8 = load i64, i64* %1, align 8, !tbaa !5
  %9 = sdiv i64 %8, 10000
  %10 = mul i64 %9, 42949672960000
  %11 = ashr exact i64 %10, 32
  %12 = sub nsw i64 %8, %11
  %13 = sdiv i64 %12, 1000
  %14 = trunc i64 %13 to i32
  %15 = mul i64 %13, 4294967296000
  %16 = ashr exact i64 %15, 32
  %17 = sub nsw i64 %12, %16
  %18 = sdiv i64 %17, 100
  %19 = trunc i64 %18 to i32
  %20 = mul i64 %18, 429496729600
  %21 = ashr exact i64 %20, 32
  %22 = sub nsw i64 %17, %21
  %23 = sdiv i64 %22, 10
  %24 = trunc i64 %23 to i32
  %25 = mul i64 %23, 42949672960
  %26 = lshr exact i64 %25, 32
  %27 = sub i64 %22, %26
  %28 = trunc i64 %27 to i32
  switch i32 %7, label %40 [
    i32 0, label %29
    i32 1, label %31
    i32 2, label %33
    i32 3, label %35
    i32 4, label %37
  ]

29:                                               ; preds = %0
  %30 = call i32 (i8*, ...) @printf(i8* nonnull dereferenceable(1) getelementptr inbounds ([3 x i8], [3 x i8]* @.str.1, i64 0, i64 0), i32 %28)
  br label %42

31:                                               ; preds = %0
  %32 = call i32 (i8*, ...) @printf(i8* nonnull dereferenceable(1) getelementptr inbounds ([5 x i8], [5 x i8]* @.str.2, i64 0, i64 0), i32 %28, i32 %24)
  br label %42

33:                                               ; preds = %0
  %34 = call i32 (i8*, ...) @printf(i8* nonnull dereferenceable(1) getelementptr inbounds ([7 x i8], [7 x i8]* @.str.3, i64 0, i64 0), i32 %28, i32 %24, i32 %19)
  br label %42

35:                                               ; preds = %0
  %36 = call i32 (i8*, ...) @printf(i8* nonnull dereferenceable(1) getelementptr inbounds ([9 x i8], [9 x i8]* @.str.4, i64 0, i64 0), i32 %28, i32 %24, i32 %19, i32 %14)
  br label %42

37:                                               ; preds = %0
  %38 = trunc i64 %9 to i32
  %39 = call i32 (i8*, ...) @printf(i8* nonnull dereferenceable(1) getelementptr inbounds ([11 x i8], [11 x i8]* @.str.5, i64 0, i64 0), i32 %28, i32 %24, i32 %19, i32 %14, i32 %38)
  br label %42

40:                                               ; preds = %0
  %41 = call i32 @putchar(i32 48)
  br label %42

42:                                               ; preds = %40, %37, %35, %33, %31, %29
  call void @llvm.lifetime.end.p0i8(i64 8, i8* nonnull %2) #5
  ret i32 0
}

; Function Attrs: argmemonly mustprogress nofree nosync nounwind willreturn
declare void @llvm.lifetime.start.p0i8(i64 immarg, i8* nocapture) #1

; Function Attrs: nofree nounwind
declare noundef i32 @__isoc99_scanf(i8* nocapture noundef readonly, ...) local_unnamed_addr #2

; Function Attrs: mustprogress nofree nounwind willreturn
declare double @log10(double) local_unnamed_addr #3

; Function Attrs: nofree nounwind
declare noundef i32 @printf(i8* nocapture noundef readonly, ...) local_unnamed_addr #2

; Function Attrs: argmemonly mustprogress nofree nosync nounwind willreturn
declare void @llvm.lifetime.end.p0i8(i64 immarg, i8* nocapture) #1

; Function Attrs: nofree nounwind
declare noundef i32 @putchar(i32 noundef) local_unnamed_addr #4


!llvm.module.flags = !{!0, !1, !2, !3}
!llvm.ident = !{!4}

!0 = !{i32 1, !"wchar_size", i32 4}
!1 = !{i32 7, !"PIC Level", i32 2}
!2 = !{i32 7, !"PIE Level", i32 2}
!3 = !{i32 7, !"uwtable", i32 1}
!4 = !{!"clang version 13.0.0"}
!5 = !{!6, !6, i64 0}
!6 = !{!"long", !7, i64 0}
!7 = !{!"omnipotent char", !8, i64 0}
!8 = !{!"Simple C/C++ TBAA"}
